target datalayout = "e-m:e-p270:32:32-p271:32:32-p272:64:64-i64:64-i128:128-f80:128-n8:16:32:64-S128"
target triple = "x86_64-pc-linux-gnu"

%struct.OfficeArtRecordHeader_Unpacked = type <{ i16, i16, i16, i32 }>
%struct.OfficeArtRecordHeader_PackedLittleEndian = type { i16, i16, i32 }

@.str.1156 = private unnamed_addr constant [58 x i8] c"cli_extract_images_from_drawing_group: Invalid arguments\0A\00", align 1
@.str.1157 = private unnamed_addr constant [82 x i8] c"cli_extract_images_from_drawing_group: Failed to get drawing group record header\0A\00", align 1
@.str.1158 = private unnamed_addr constant [94 x i8] c"cli_extract_images_from_drawing_group: Invalid record values for drawing group record header\0A\00", align 1
@.str.1159 = private unnamed_addr constant [105 x i8] c"cli_extract_images_from_drawing_group: Record header claims to be longer than our drawing group buffer:\0A\00", align 1
@.str.1160 = private unnamed_addr constant [51 x i8] c"cli_extract_images_from_drawing_group:   %u > %zu\0A\00", align 1
@.str.1161 = private unnamed_addr constant [77 x i8] c"cli_extract_images_from_drawing_group: Found drawing group of size %u bytes\0A\00", align 1
@.str.1162 = private unnamed_addr constant [61 x i8] c"cli_extract_images_from_drawing_group: Failed to get header\0A\00", align 1
@.str.1163 = private unnamed_addr constant [82 x i8] c"cli_extract_images_from_drawing_group: Not enough data remaining for BLIP store.\0A\00", align 1
@.str.1164 = private unnamed_addr constant [97 x i8] c"cli_extract_images_from_drawing_group: Found an OfficeArtBStoreContainerFileBlock (Blip store).\0A\00", align 1
@.str.1165 = private unnamed_addr constant [90 x i8] c"cli_extract_images_from_drawing_group:   size: %u bytes, contains: %u file block records\0A\00", align 1
@.str.1166 = private unnamed_addr constant [138 x i8] c"cli_extract_images_from_drawing_group: WARNING: The blip store header claims to be bigger than the remaining bytes in the drawing group!\0A\00", align 1
@.str.1167 = private unnamed_addr constant [52 x i8] c"cli_extract_images_from_drawing_group:   %d > %zu!\0A\00", align 1
@.str.1218 = private unnamed_addr constant [51 x i8] c"read_office_art_record_header: office art record:\0A\00", align 1
@.str.1219 = private unnamed_addr constant [52 x i8] c"read_office_art_record_header:   recVer       0x%x\0A\00", align 1
@.str.1220 = private unnamed_addr constant [52 x i8] c"read_office_art_record_header:   recInstance  0x%x\0A\00", align 1
@.str.1221 = private unnamed_addr constant [52 x i8] c"read_office_art_record_header:   recType      0x%x\0A\00", align 1
@.str.1222 = private unnamed_addr constant [50 x i8] c"read_office_art_record_header:   recLen       %u\0A\00", align 1

; Function Attrs: nounwind uwtable
define internal i32 @read_office_art_record_header(ptr noundef %0, i64 noundef %1, ptr noundef %2) #0 {
  %4 = alloca ptr, align 8
  %5 = alloca i64, align 8
  %6 = alloca ptr, align 8
  %7 = alloca i32, align 4
  %8 = alloca i16, align 2
  %9 = alloca ptr, align 8
  store ptr %0, ptr %4, align 8
  store i64 %1, ptr %5, align 8
  store ptr %2, ptr %6, align 8
  store i32 3, ptr %7, align 4
  %10 = load ptr, ptr %4, align 8
  %11 = icmp eq ptr null, %10
  br i1 %11, label %18, label %12

12:                                               ; preds = %3
  %13 = load i64, ptr %5, align 8
  %14 = icmp ugt i64 8, %13
  br i1 %14, label %18, label %15

15:                                               ; preds = %12
  %16 = load ptr, ptr %6, align 8
  %17 = icmp eq ptr null, %16
  br i1 %17, label %18, label %19

18:                                               ; preds = %15, %12, %3
  br label %62

19:                                               ; preds = %15
  %20 = load ptr, ptr %4, align 8
  store ptr %20, ptr %9, align 8
  %21 = load ptr, ptr %9, align 8
  %22 = getelementptr inbounds %struct.OfficeArtRecordHeader_PackedLittleEndian, ptr %21, i32 0, i32 0
  %23 = load i16, ptr %22, align 1
  store i16 %23, ptr %8, align 2
  %24 = load i16, ptr %8, align 2
  %25 = zext i16 %24 to i32
  %26 = and i32 %25, 15
  %27 = trunc i32 %26 to i16
  %28 = load ptr, ptr %6, align 8
  %29 = getelementptr inbounds %struct.OfficeArtRecordHeader_Unpacked, ptr %28, i32 0, i32 0
  store i16 %27, ptr %29, align 1
  %30 = load i16, ptr %8, align 2
  %31 = zext i16 %30 to i32
  %32 = and i32 %31, 65520
  %33 = ashr i32 %32, 4
  %34 = trunc i32 %33 to i16
  %35 = load ptr, ptr %6, align 8
  %36 = getelementptr inbounds %struct.OfficeArtRecordHeader_Unpacked, ptr %35, i32 0, i32 1
  store i16 %34, ptr %36, align 1
  %37 = load ptr, ptr %9, align 8
  %38 = getelementptr inbounds %struct.OfficeArtRecordHeader_PackedLittleEndian, ptr %37, i32 0, i32 1
  %39 = load i16, ptr %38, align 1
  %40 = load ptr, ptr %6, align 8
  %41 = getelementptr inbounds %struct.OfficeArtRecordHeader_Unpacked, ptr %40, i32 0, i32 2
  store i16 %39, ptr %41, align 1
  %42 = load ptr, ptr %9, align 8
  %43 = getelementptr inbounds %struct.OfficeArtRecordHeader_PackedLittleEndian, ptr %42, i32 0, i32 2
  %44 = load i32, ptr %43, align 1
  %45 = load ptr, ptr %6, align 8
  %46 = getelementptr inbounds %struct.OfficeArtRecordHeader_Unpacked, ptr %45, i32 0, i32 3
  store i32 %44, ptr %46, align 1
  call void (ptr, ...) @cli_dbgmsg(ptr noundef @.str.1218)
  %47 = load ptr, ptr %6, align 8
  %48 = getelementptr inbounds %struct.OfficeArtRecordHeader_Unpacked, ptr %47, i32 0, i32 0
  %49 = load i16, ptr %48, align 1
  %50 = zext i16 %49 to i32
  call void (ptr, ...) @cli_dbgmsg(ptr noundef @.str.1219, i32 noundef %50)
  %51 = load ptr, ptr %6, align 8
  %52 = getelementptr inbounds %struct.OfficeArtRecordHeader_Unpacked, ptr %51, i32 0, i32 1
  %53 = load i16, ptr %52, align 1
  %54 = zext i16 %53 to i32
  call void (ptr, ...) @cli_dbgmsg(ptr noundef @.str.1220, i32 noundef %54)
  %55 = load ptr, ptr %6, align 8
  %56 = getelementptr inbounds %struct.OfficeArtRecordHeader_Unpacked, ptr %55, i32 0, i32 2
  %57 = load i16, ptr %56, align 1
  %58 = zext i16 %57 to i32
  call void (ptr, ...) @cli_dbgmsg(ptr noundef @.str.1221, i32 noundef %58)
  %59 = load ptr, ptr %6, align 8
  %60 = getelementptr inbounds %struct.OfficeArtRecordHeader_Unpacked, ptr %59, i32 0, i32 3
  %61 = load i32, ptr %60, align 1
  call void (ptr, ...) @cli_dbgmsg(ptr noundef @.str.1222, i32 noundef %61)
  store i32 0, ptr %7, align 4
  br label %62

62:                                               ; preds = %19, %18
  %63 = load i32, ptr %7, align 4
  ret i32 %63
}

; Function Attrs: nounwind uwtable
define i32 @cli_extract_images_from_drawing_group(ptr noundef %0, i64 noundef %1, ptr noundef %2) #0 {
  %4 = alloca ptr, align 8
  %5 = alloca i64, align 8
  %6 = alloca ptr, align 8
  %7 = alloca i32, align 4
  %8 = alloca %struct.OfficeArtRecordHeader_Unpacked, align 1
  %9 = alloca ptr, align 8
  %10 = alloca i64, align 8
  %11 = alloca ptr, align 8
  %12 = alloca i64, align 8
  store ptr %0, ptr %4, align 8
  store i64 %1, ptr %5, align 8
  store ptr %2, ptr %6, align 8
  store i32 3, ptr %7, align 4
  %13 = load ptr, ptr %4, align 8
  store ptr %13, ptr %9, align 8
  %14 = load i64, ptr %5, align 8
  store i64 %14, ptr %10, align 8
  %15 = load ptr, ptr %4, align 8
  %16 = icmp eq ptr null, %15
  br i1 %16, label %20, label %17

17:                                               ; preds = %3
  %18 = load i64, ptr %5, align 8
  %19 = icmp eq i64 0, %18
  br i1 %19, label %20, label %21

20:                                               ; preds = %17, %3
  call void (ptr, ...) @cli_dbgmsg(ptr noundef @.str.1156)
  br label %143

21:                                               ; preds = %17
  %22 = load ptr, ptr %4, align 8
  %23 = load i64, ptr %5, align 8
  %24 = call i32 @read_office_art_record_header(ptr noundef %22, i64 noundef %23, ptr noundef %8)
  %25 = icmp ne i32 0, %24
  br i1 %25, label %26, label %27

26:                                               ; preds = %21
  call void (ptr, ...) @cli_dbgmsg(ptr noundef @.str.1157)
  br label %143

27:                                               ; preds = %21
  %28 = getelementptr inbounds %struct.OfficeArtRecordHeader_Unpacked, ptr %8, i32 0, i32 0
  %29 = load i16, ptr %28, align 1
  %30 = zext i16 %29 to i32
  %31 = icmp eq i32 15, %30
  br i1 %31, label %32, label %42

32:                                               ; preds = %27
  %33 = getelementptr inbounds %struct.OfficeArtRecordHeader_Unpacked, ptr %8, i32 0, i32 1
  %34 = load i16, ptr %33, align 1
  %35 = zext i16 %34 to i32
  %36 = icmp eq i32 0, %35
  br i1 %36, label %37, label %42

37:                                               ; preds = %32
  %38 = getelementptr inbounds %struct.OfficeArtRecordHeader_Unpacked, ptr %8, i32 0, i32 2
  %39 = load i16, ptr %38, align 1
  %40 = zext i16 %39 to i32
  %41 = icmp eq i32 61440, %40
  br i1 %41, label %43, label %42

42:                                               ; preds = %37, %32, %27
  call void (ptr, ...) @cli_dbgmsg(ptr noundef @.str.1158)
  br label %143

43:                                               ; preds = %37
  %44 = getelementptr inbounds %struct.OfficeArtRecordHeader_Unpacked, ptr %8, i32 0, i32 3
  %45 = load i32, ptr %44, align 1
  %46 = zext i32 %45 to i64
  %47 = load i64, ptr %5, align 8
  %48 = icmp ugt i64 %46, %47
  br i1 %48, label %49, label %53

49:                                               ; preds = %43
  call void (ptr, ...) @cli_dbgmsg(ptr noundef @.str.1159)
  %50 = getelementptr inbounds %struct.OfficeArtRecordHeader_Unpacked, ptr %8, i32 0, i32 3
  %51 = load i32, ptr %50, align 1
  %52 = load i64, ptr %5, align 8
  call void (ptr, ...) @cli_dbgmsg(ptr noundef @.str.1160, i32 noundef %51, i64 noundef %52)
  br label %53

53:                                               ; preds = %49, %43
  %54 = getelementptr inbounds %struct.OfficeArtRecordHeader_Unpacked, ptr %8, i32 0, i32 3
  %55 = load i32, ptr %54, align 1
  call void (ptr, ...) @cli_dbgmsg(ptr noundef @.str.1161, i32 noundef %55)
  %56 = load i64, ptr %10, align 8
  %57 = icmp ult i64 %56, 8
  br i1 %57, label %58, label %59

58:                                               ; preds = %53
  store i64 0, ptr %10, align 8
  br label %64

59:                                               ; preds = %53
  %60 = load i64, ptr %10, align 8
  %61 = sub i64 %60, 8
  store i64 %61, ptr %10, align 8
  %62 = load ptr, ptr %9, align 8
  %63 = getelementptr inbounds i8, ptr %62, i64 8
  store ptr %63, ptr %9, align 8
  br label %64

64:                                               ; preds = %59, %58
  br label %65

65:                                               ; preds = %141, %64
  %66 = load i64, ptr %10, align 8
  %67 = icmp ult i64 0, %66
  br i1 %67, label %68, label %142

68:                                               ; preds = %65
  %69 = load ptr, ptr %9, align 8
  %70 = load i64, ptr %10, align 8
  %71 = call i32 @read_office_art_record_header(ptr noundef %69, i64 noundef %70, ptr noundef %8)
  %72 = icmp ne i32 0, %71
  br i1 %72, label %73, label %74

73:                                               ; preds = %68
  call void (ptr, ...) @cli_dbgmsg(ptr noundef @.str.1162)
  br label %143

74:                                               ; preds = %68
  %75 = load i64, ptr %10, align 8
  %76 = icmp ugt i64 8, %75
  br i1 %76, label %77, label %78

77:                                               ; preds = %74
  call void (ptr, ...) @cli_dbgmsg(ptr noundef @.str.1163)
  br label %143

78:                                               ; preds = %74
  %79 = getelementptr inbounds %struct.OfficeArtRecordHeader_Unpacked, ptr %8, i32 0, i32 0
  %80 = load i16, ptr %79, align 1
  %81 = zext i16 %80 to i32
  %82 = icmp eq i32 15, %81
  br i1 %82, label %83, label %120

83:                                               ; preds = %78
  %84 = getelementptr inbounds %struct.OfficeArtRecordHeader_Unpacked, ptr %8, i32 0, i32 2
  %85 = load i16, ptr %84, align 1
  %86 = zext i16 %85 to i32
  %87 = icmp eq i32 61441, %86
  br i1 %87, label %88, label %120

88:                                               ; preds = %83
  %89 = load ptr, ptr %9, align 8
  %90 = getelementptr inbounds i8, ptr %89, i64 8
  store ptr %90, ptr %11, align 8
  %91 = load i64, ptr %10, align 8
  %92 = sub i64 %91, 8
  store i64 %92, ptr %12, align 8
  call void (ptr, ...) @cli_dbgmsg(ptr noundef @.str.1164)
  %93 = getelementptr inbounds %struct.OfficeArtRecordHeader_Unpacked, ptr %8, i32 0, i32 3
  %94 = load i32, ptr %93, align 1
  %95 = getelementptr inbounds %struct.OfficeArtRecordHeader_Unpacked, ptr %8, i32 0, i32 1
  %96 = load i16, ptr %95, align 1
  %97 = zext i16 %96 to i32
  call void (ptr, ...) @cli_dbgmsg(ptr noundef @.str.1165, i32 noundef %94, i32 noundef %97)
  %98 = getelementptr inbounds %struct.OfficeArtRecordHeader_Unpacked, ptr %8, i32 0, i32 3
  %99 = load i32, ptr %98, align 1
  %100 = zext i32 %99 to i64
  %101 = load i64, ptr %12, align 8
  %102 = icmp ugt i64 %100, %101
  br i1 %102, label %103, label %107

103:                                              ; preds = %88
  call void (ptr, ...) @cli_dbgmsg(ptr noundef @.str.1166)
  %104 = getelementptr inbounds %struct.OfficeArtRecordHeader_Unpacked, ptr %8, i32 0, i32 3
  %105 = load i32, ptr %104, align 1
  %106 = load i64, ptr %12, align 8
  call void (ptr, ...) @cli_dbgmsg(ptr noundef @.str.1167, i32 noundef %105, i64 noundef %106)
  br label %111

107:                                              ; preds = %88
  %108 = getelementptr inbounds %struct.OfficeArtRecordHeader_Unpacked, ptr %8, i32 0, i32 3
  %109 = load i32, ptr %108, align 1
  %110 = zext i32 %109 to i64
  store i64 %110, ptr %12, align 8
  br label %111

111:                                              ; preds = %107, %103
  %112 = load ptr, ptr %11, align 8
  %113 = load i64, ptr %12, align 8
  %114 = load ptr, ptr %6, align 8
  %115 = call i32 @process_blip_store_container(ptr noundef %112, i64 noundef %113, ptr noundef %114)
  store i32 %115, ptr %7, align 4
  %116 = load i32, ptr %7, align 4
  %117 = icmp ne i32 0, %116
  br i1 %117, label %118, label %119

118:                                              ; preds = %111
  br label %143

119:                                              ; preds = %111
  br label %120

120:                                              ; preds = %119, %83, %78
  %121 = load i64, ptr %10, align 8
  %122 = getelementptr inbounds %struct.OfficeArtRecordHeader_Unpacked, ptr %8, i32 0, i32 3
  %123 = load i32, ptr %122, align 1
  %124 = zext i32 %123 to i64
  %125 = add i64 8, %124
  %126 = icmp ult i64 %121, %125
  br i1 %126, label %127, label %128

127:                                              ; preds = %120
  store i64 0, ptr %10, align 8
  br label %141

128:                                              ; preds = %120
  %129 = getelementptr inbounds %struct.OfficeArtRecordHeader_Unpacked, ptr %8, i32 0, i32 3
  %130 = load i32, ptr %129, align 1
  %131 = zext i32 %130 to i64
  %132 = add i64 8, %131
  %133 = load i64, ptr %10, align 8
  %134 = sub i64 %133, %132
  store i64 %134, ptr %10, align 8
  %135 = getelementptr inbounds %struct.OfficeArtRecordHeader_Unpacked, ptr %8, i32 0, i32 3
  %136 = load i32, ptr %135, align 1
  %137 = zext i32 %136 to i64
  %138 = add i64 8, %137
  %139 = load ptr, ptr %9, align 8
  %140 = getelementptr inbounds i8, ptr %139, i64 %138
  store ptr %140, ptr %9, align 8
  br label %141

141:                                              ; preds = %128, %127
  br label %65

142:                                              ; preds = %65
  store i32 0, ptr %7, align 4
  br label %143

143:                                              ; preds = %142, %118, %77, %73, %42, %26, %20
  %144 = load i32, ptr %7, align 4
  ret i32 %144
}