; Function Attrs: nounwind uwtable
define i32 @cli_extract_images_from_drawing_group(ptr noundef %0, i64 noundef %1, ptr noundef %2) local_unnamed_addr #0 {
  %4 = icmp eq ptr %0, null
  %5 = icmp eq i64 %1, 0
  %or.cond = or i1 %4, %5
  br i1 %or.cond, label %.loopexit.sink.split, label %6

6:                                                ; preds = %3
  %7 = icmp ult i64 %1, 8
  br i1 %7, label %.loopexit.sink.split, label %8

8:                                                ; preds = %6
  %9 = load i16, ptr %0, align 1
  %10 = and i16 %9, 15
  %11 = lshr i16 %9, 4
  %12 = getelementptr inbounds nuw i8, ptr %0, i64 2
  %13 = load i16, ptr %12, align 1
  %14 = getelementptr inbounds nuw i8, ptr %0, i64 4
  %15 = load i32, ptr %14, align 1
  tail call void (ptr, ...) @cli_dbgmsg(ptr noundef nonnull @.str.1218) #10
  %16 = zext nneg i16 %10 to i32
  tail call void (ptr, ...) @cli_dbgmsg(ptr noundef nonnull @.str.1219, i32 noundef %16) #10
  %17 = zext nneg i16 %11 to i32
  tail call void (ptr, ...) @cli_dbgmsg(ptr noundef nonnull @.str.1220, i32 noundef %17) #10
  %18 = zext i16 %13 to i32
  tail call void (ptr, ...) @cli_dbgmsg(ptr noundef nonnull @.str.1221, i32 noundef %18) #10
  tail call void (ptr, ...) @cli_dbgmsg(ptr noundef nonnull @.str.1222, i32 noundef %15) #10
  %or.cond5 = icmp eq i16 %9, 15
  %19 = icmp eq i16 %13, -4096
  %or.cond9 = select i1 %or.cond5, i1 %19, i1 false
  br i1 %or.cond9, label %20, label %.loopexit.sink.split

20:                                               ; preds = %8
  %21 = zext i32 %15 to i64
  %22 = icmp ult i64 %1, %21
  br i1 %22, label %23, label %24

23:                                               ; preds = %20
  tail call void (ptr, ...) @cli_dbgmsg(ptr noundef nonnull @.str.1159) #10
  tail call void (ptr, ...) @cli_dbgmsg(ptr noundef nonnull @.str.1160, i32 noundef %15, i64 noundef %1) #10
  br label %24

24:                                               ; preds = %23, %20
  tail call void (ptr, ...) @cli_dbgmsg(ptr noundef nonnull @.str.1161, i32 noundef %15) #10
  %25 = add i64 %1, -8
  %.not53100 = icmp eq i64 %25, 0
  br i1 %.not53100, label %.loopexit, label %.lr.ph.preheader

.lr.ph.preheader:                                 ; preds = %24
  %26 = getelementptr inbounds nuw i8, ptr %0, i64 8
  br label %.lr.ph

.lr.ph:                                           ; preds = %.lr.ph.preheader, %select.unfold86
  %.1103 = phi i32 [ %.2, %select.unfold86 ], [ 3, %.lr.ph.preheader ]
  %.141102 = phi i64 [ %spec.select98, %select.unfold86 ], [ %25, %.lr.ph.preheader ]
  %.144101 = phi ptr [ %spec.select, %select.unfold86 ], [ %26, %.lr.ph.preheader ]
  %27 = icmp ult i64 %.141102, 8
  br i1 %27, label %.loopexit.sink.split, label %28

28:                                               ; preds = %.lr.ph
  %29 = load i16, ptr %.144101, align 1
  %30 = and i16 %29, 15
  %31 = lshr i16 %29, 4
  %32 = getelementptr inbounds nuw i8, ptr %.144101, i64 2
  %33 = load i16, ptr %32, align 1
  %34 = getelementptr inbounds nuw i8, ptr %.144101, i64 4
  %35 = load i32, ptr %34, align 1
  tail call void (ptr, ...) @cli_dbgmsg(ptr noundef nonnull @.str.1218) #10
  %36 = zext nneg i16 %30 to i32
  tail call void (ptr, ...) @cli_dbgmsg(ptr noundef nonnull @.str.1219, i32 noundef %36) #10
  %37 = zext nneg i16 %31 to i32
  tail call void (ptr, ...) @cli_dbgmsg(ptr noundef nonnull @.str.1220, i32 noundef %37) #10
  %38 = zext i16 %33 to i32
  tail call void (ptr, ...) @cli_dbgmsg(ptr noundef nonnull @.str.1221, i32 noundef %38) #10
  tail call void (ptr, ...) @cli_dbgmsg(ptr noundef nonnull @.str.1222, i32 noundef %35) #10
  %39 = icmp eq i16 %30, 15
  %40 = icmp eq i16 %33, -4095
  %or.cond13 = select i1 %39, i1 %40, i1 false
  br i1 %or.cond13, label %41, label %.select.unfold86_crit_edge

.select.unfold86_crit_edge:                       ; preds = %28
  %.pre = zext i32 %35 to i64
  br label %select.unfold86

41:                                               ; preds = %28
  %42 = getelementptr inbounds nuw i8, ptr %.144101, i64 8
  %43 = add i64 %.141102, -8
  tail call void (ptr, ...) @cli_dbgmsg(ptr noundef nonnull @.str.1164) #10
  tail call void (ptr, ...) @cli_dbgmsg(ptr noundef nonnull @.str.1165, i32 noundef %35, i32 noundef %37) #10
  %44 = zext i32 %35 to i64
  %45 = icmp ult i64 %43, %44
  br i1 %45, label %46, label %47

46:                                               ; preds = %41
  tail call void (ptr, ...) @cli_dbgmsg(ptr noundef nonnull @.str.1166) #10
  tail call void (ptr, ...) @cli_dbgmsg(ptr noundef nonnull @.str.1167, i32 noundef %35, i64 noundef %43) #10
  br label %47

47:                                               ; preds = %41, %46
  %.0 = phi i64 [ %43, %46 ], [ %44, %41 ]
  %48 = tail call i32 @process_blip_store_container(ptr noundef nonnull %42, i64 noundef %.0, ptr noundef %2)
  %.not55 = icmp eq i32 %48, 0
  br i1 %.not55, label %select.unfold86, label %.loopexit

select.unfold86:                                  ; preds = %.select.unfold86_crit_edge, %47
  %.pre-phi = phi i64 [ %.pre, %.select.unfold86_crit_edge ], [ %44, %47 ]
  %.2 = phi i32 [ %.1103, %.select.unfold86_crit_edge ], [ 0, %47 ]
  %49 = add nuw nsw i64 %.pre-phi, 8
  %50 = icmp ult i64 %.141102, %49
  %spec.select.idx = select i1 %50, i64 0, i64 %49
  %spec.select = getelementptr inbounds nuw i8, ptr %.144101, i64 %spec.select.idx
  %spec.select98 = tail call i64 @llvm.usub.sat.i64(i64 %.141102, i64 %49)
  %.not53.not = icmp ugt i64 %.141102, %49
  br i1 %.not53.not, label %.lr.ph, label %.loopexit

.loopexit.sink.split:                             ; preds = %.lr.ph, %8, %6, %3
  %.str.1162.sink = phi ptr [ @.str.1156, %3 ], [ @.str.1157, %6 ], [ @.str.1158, %8 ], [ @.str.1162, %.lr.ph ]
  %.039.ph = phi i32 [ 3, %3 ], [ 3, %6 ], [ 3, %8 ], [ %.1103, %.lr.ph ]
  tail call void (ptr, ...) @cli_dbgmsg(ptr noundef nonnull %.str.1162.sink) #10
  br label %.loopexit

.loopexit:                                        ; preds = %47, %select.unfold86, %.loopexit.sink.split, %24
  %.039 = phi i32 [ 0, %24 ], [ %.039.ph, %.loopexit.sink.split ], [ %48, %47 ], [ 0, %select.unfold86 ]
  ret i32 %.039
}